---
triple:          'arm64-apple-darwin'
binary-path:     '/Users/josephles/github/SecureCoding/Assignments/Module2/CS 405 M2 BufferOverflow code files/BufferOverflow'
relocations:
  - { offsetInCU: 0x2F8C, offset: 0x2F8C, size: 0x8, addend: 0x0, symName: __ZNSt3__124__put_character_sequenceB8ue170006IcNS_11char_traitsIcEEEERNS_13basic_ostreamIT_T0_EES7_PKS4_m, symObjAddr: 0x31C, symBinAddr: 0x1000031CC, symSize: 0x1EC }
  - { offsetInCU: 0x4AFE, offset: 0x4AFE, size: 0x8, addend: 0x0, symName: __ZNSt3__1lsB8ue170006INS_11char_traitsIcEEEERNS_13basic_ostreamIcT_EES6_PKc, symObjAddr: 0x150, symBinAddr: 0x100003000, symSize: 0x48 }
  - { offsetInCU: 0x4B44, offset: 0x4B44, size: 0x8, addend: 0x0, symName: __ZNSt3__14endlB8ue170006IcNS_11char_traitsIcEEEERNS_13basic_ostreamIT_T0_EES7_, symObjAddr: 0x1C4, symBinAddr: 0x100003074, symSize: 0x58 }
  - { offsetInCU: 0x5298, offset: 0x5298, size: 0x8, addend: 0x0, symName: __ZNSt3__116__pad_and_outputB8ue170006IcNS_11char_traitsIcEEEENS_19ostreambuf_iteratorIT_T0_EES6_PKS4_S8_S8_RNS_8ios_baseES4_, symObjAddr: 0x558, symBinAddr: 0x100003408, symSize: 0x240 }
  - { offsetInCU: 0x5367, offset: 0x5367, size: 0x8, addend: 0x0, symName: __ZNSt3__112__to_addressB8ue170006IKcEEPT_S3_, symObjAddr: 0xACC, symBinAddr: 0x10000397C, symSize: 0x14 }
  - { offsetInCU: 0x53CF, offset: 0x53CF, size: 0x8, addend: 0x0, symName: __ZNSt3__19use_facetB8ue170006INS_5ctypeIcEEEERKT_RKNS_6localeE, symObjAddr: 0xD4C, symBinAddr: 0x100003BFC, symSize: 0x2C }
  - { offsetInCU: 0x589C, offset: 0x589C, size: 0x8, addend: 0x0, symName: __ZNSt3__118__constexpr_strlenB8ue170006EPKc, symObjAddr: 0xDE4, symBinAddr: 0x100003C94, symSize: 0x24 }
  - { offsetInCU: 0x7F1D, offset: 0x7F1D, size: 0x8, addend: 0x0, symName: _main, symObjAddr: 0x0, symBinAddr: 0x100002EB0, symSize: 0x150 }
  - { offsetInCU: 0x7F45, offset: 0x7F45, size: 0x8, addend: 0x0, symName: __ZNSt3__113basic_ostreamIcNS_11char_traitsIcEEElsB8ue170006EPFRS3_S4_E, symObjAddr: 0x198, symBinAddr: 0x100003048, symSize: 0x2C }
  - { offsetInCU: 0x7FEB, offset: 0x7FEB, size: 0x8, addend: 0x0, symName: __ZNSt3__113basic_istreamIcNS_11char_traitsIcEEE7getlineB8ue170006EPcl, symObjAddr: 0x21C, symBinAddr: 0x1000030CC, symSize: 0x68 }
  - { offsetInCU: 0x802D, offset: 0x802D, size: 0x8, addend: 0x0, symName: __ZNKSt3__19basic_iosIcNS_11char_traitsIcEEE4failB8ue170006Ev, symObjAddr: 0x284, symBinAddr: 0x100003134, symSize: 0x28 }
  - { offsetInCU: 0x8051, offset: 0x8051, size: 0x8, addend: 0x0, symName: __ZNKSt3__19basic_iosIcNS_11char_traitsIcEEE3eofB8ue170006Ev, symObjAddr: 0x2AC, symBinAddr: 0x10000315C, symSize: 0x28 }
  - { offsetInCU: 0x8075, offset: 0x8075, size: 0x8, addend: 0x0, symName: __ZNSt3__19basic_iosIcNS_11char_traitsIcEEE5clearB8ue170006Ej, symObjAddr: 0x2D4, symBinAddr: 0x100003184, symSize: 0x2C }
  - { offsetInCU: 0x80A8, offset: 0x80A8, size: 0x8, addend: 0x0, symName: __ZNSt3__114numeric_limitsIlE3maxB8ue170006Ev, symObjAddr: 0x300, symBinAddr: 0x1000031B0, symSize: 0x14 }
  - { offsetInCU: 0x80BB, offset: 0x80BB, size: 0x8, addend: 0x0, symName: __ZNSt3__123__libcpp_numeric_limitsIlLb1EE3maxB8ue170006Ev, symObjAddr: 0x314, symBinAddr: 0x1000031C4, symSize: 0x8 }
  - { offsetInCU: 0x80CE, offset: 0x80CE, size: 0x8, addend: 0x0, symName: __ZNSt3__111char_traitsIcE6lengthB8ue170006EPKc, symObjAddr: 0x508, symBinAddr: 0x1000033B8, symSize: 0x34 }
  - { offsetInCU: 0x810E, offset: 0x810E, size: 0x8, addend: 0x0, symName: __ZNKSt3__113basic_ostreamIcNS_11char_traitsIcEEE6sentrycvbB8ue170006Ev, symObjAddr: 0x53C, symBinAddr: 0x1000033EC, symSize: 0x1C }
  - { offsetInCU: 0x8132, offset: 0x8132, size: 0x8, addend: 0x0, symName: __ZNSt3__119ostreambuf_iteratorIcNS_11char_traitsIcEEEC1B8ue170006ERNS_13basic_ostreamIcS2_EE, symObjAddr: 0x798, symBinAddr: 0x100003648, symSize: 0x34 }
  - { offsetInCU: 0x8168, offset: 0x8168, size: 0x8, addend: 0x0, symName: __ZNKSt3__18ios_base5flagsB8ue170006Ev, symObjAddr: 0x7CC, symBinAddr: 0x10000367C, symSize: 0x18 }
  - { offsetInCU: 0x818E, offset: 0x818E, size: 0x8, addend: 0x0, symName: __ZNKSt3__19basic_iosIcNS_11char_traitsIcEEE4fillB8ue170006Ev, symObjAddr: 0x7E4, symBinAddr: 0x100003694, symSize: 0x64 }
  - { offsetInCU: 0x81B4, offset: 0x81B4, size: 0x8, addend: 0x0, symName: __ZNKSt3__119ostreambuf_iteratorIcNS_11char_traitsIcEEE6failedB8ue170006Ev, symObjAddr: 0x848, symBinAddr: 0x1000036F8, symSize: 0x24 }
  - { offsetInCU: 0x81D8, offset: 0x81D8, size: 0x8, addend: 0x0, symName: __ZNSt3__19basic_iosIcNS_11char_traitsIcEEE8setstateB8ue170006Ej, symObjAddr: 0x86C, symBinAddr: 0x10000371C, symSize: 0x2C }
  - { offsetInCU: 0x820B, offset: 0x820B, size: 0x8, addend: 0x0, symName: __ZNKSt3__18ios_base5widthB8ue170006Ev, symObjAddr: 0x8A4, symBinAddr: 0x100003754, symSize: 0x18 }
  - { offsetInCU: 0x8231, offset: 0x8231, size: 0x8, addend: 0x0, symName: __ZNSt3__115basic_streambufIcNS_11char_traitsIcEEE5sputnB8ue170006EPKcl, symObjAddr: 0x8BC, symBinAddr: 0x10000376C, symSize: 0x3C }
  - { offsetInCU: 0x8271, offset: 0x8271, size: 0x8, addend: 0x0, symName: __ZNSt3__112basic_stringIcNS_11char_traitsIcEENS_9allocatorIcEEEC1B8ue170006Emc, symObjAddr: 0x8F8, symBinAddr: 0x1000037A8, symSize: 0x3C }
  - { offsetInCU: 0x82B7, offset: 0x82B7, size: 0x8, addend: 0x0, symName: __ZNKSt3__112basic_stringIcNS_11char_traitsIcEENS_9allocatorIcEEE4dataB8ue170006Ev, symObjAddr: 0x934, symBinAddr: 0x1000037E4, symSize: 0x28 }
  - { offsetInCU: 0x82DB, offset: 0x82DB, size: 0x8, addend: 0x0, symName: __ZNSt3__18ios_base5widthB8ue170006El, symObjAddr: 0x95C, symBinAddr: 0x10000380C, symSize: 0x2C }
  - { offsetInCU: 0x831F, offset: 0x831F, size: 0x8, addend: 0x0, symName: __ZNSt3__112basic_stringIcNS_11char_traitsIcEENS_9allocatorIcEEEC2B8ue170006Emc, symObjAddr: 0x988, symBinAddr: 0x100003838, symSize: 0x4C }
  - { offsetInCU: 0x836A, offset: 0x836A, size: 0x8, addend: 0x0, symName: __ZNSt3__117__compressed_pairINS_12basic_stringIcNS_11char_traitsIcEENS_9allocatorIcEEE5__repES5_EC1B8ue170006INS_18__default_init_tagESA_EEOT_OT0_, symObjAddr: 0x9D4, symBinAddr: 0x100003884, symSize: 0x3C }
  - { offsetInCU: 0x83C0, offset: 0x83C0, size: 0x8, addend: 0x0, symName: __ZNSt3__117__compressed_pairINS_12basic_stringIcNS_11char_traitsIcEENS_9allocatorIcEEE5__repES5_EC2B8ue170006INS_18__default_init_tagESA_EEOT_OT0_, symObjAddr: 0xA10, symBinAddr: 0x1000038C0, symSize: 0x3C }
  - { offsetInCU: 0x8417, offset: 0x8417, size: 0x8, addend: 0x0, symName: __ZNSt3__122__compressed_pair_elemINS_12basic_stringIcNS_11char_traitsIcEENS_9allocatorIcEEE5__repELi0ELb0EEC2B8ue170006ENS_18__default_init_tagE, symObjAddr: 0xA4C, symBinAddr: 0x1000038FC, symSize: 0x14 }
  - { offsetInCU: 0x8449, offset: 0x8449, size: 0x8, addend: 0x0, symName: __ZNSt3__122__compressed_pair_elemINS_9allocatorIcEELi1ELb1EEC2B8ue170006ENS_18__default_init_tagE, symObjAddr: 0xA60, symBinAddr: 0x100003910, symSize: 0x2C }
  - { offsetInCU: 0x847C, offset: 0x847C, size: 0x8, addend: 0x0, symName: __ZNSt3__19allocatorIcEC2B8ue170006Ev, symObjAddr: 0xA8C, symBinAddr: 0x10000393C, symSize: 0x2C }
  - { offsetInCU: 0x84A5, offset: 0x84A5, size: 0x8, addend: 0x0, symName: __ZNSt3__116__non_trivial_ifILb1ENS_9allocatorIcEEEC2B8ue170006Ev, symObjAddr: 0xAB8, symBinAddr: 0x100003968, symSize: 0x14 }
  - { offsetInCU: 0x84CC, offset: 0x84CC, size: 0x8, addend: 0x0, symName: __ZNKSt3__112basic_stringIcNS_11char_traitsIcEENS_9allocatorIcEEE13__get_pointerB8ue170006Ev, symObjAddr: 0xAE0, symBinAddr: 0x100003990, symSize: 0x54 }
  - { offsetInCU: 0x84F0, offset: 0x84F0, size: 0x8, addend: 0x0, symName: __ZNKSt3__112basic_stringIcNS_11char_traitsIcEENS_9allocatorIcEEE9__is_longB8ue170006Ev, symObjAddr: 0xB34, symBinAddr: 0x1000039E4, symSize: 0x38 }
  - { offsetInCU: 0x8514, offset: 0x8514, size: 0x8, addend: 0x0, symName: __ZNKSt3__112basic_stringIcNS_11char_traitsIcEENS_9allocatorIcEEE18__get_long_pointerB8ue170006Ev, symObjAddr: 0xB6C, symBinAddr: 0x100003A1C, symSize: 0x28 }
  - { offsetInCU: 0x8538, offset: 0x8538, size: 0x8, addend: 0x0, symName: __ZNKSt3__112basic_stringIcNS_11char_traitsIcEENS_9allocatorIcEEE19__get_short_pointerB8ue170006Ev, symObjAddr: 0xB94, symBinAddr: 0x100003A44, symSize: 0x28 }
  - { offsetInCU: 0x855C, offset: 0x855C, size: 0x8, addend: 0x0, symName: __ZNKSt3__117__compressed_pairINS_12basic_stringIcNS_11char_traitsIcEENS_9allocatorIcEEE5__repES5_E5firstB8ue170006Ev, symObjAddr: 0xBBC, symBinAddr: 0x100003A6C, symSize: 0x24 }
  - { offsetInCU: 0x8580, offset: 0x8580, size: 0x8, addend: 0x0, symName: __ZNKSt3__122__compressed_pair_elemINS_12basic_stringIcNS_11char_traitsIcEENS_9allocatorIcEEE5__repELi0ELb0EE5__getB8ue170006Ev, symObjAddr: 0xBE0, symBinAddr: 0x100003A90, symSize: 0x14 }
  - { offsetInCU: 0x85A5, offset: 0x85A5, size: 0x8, addend: 0x0, symName: __ZNSt3__114pointer_traitsIPKcE10pointer_toB8ue170006ERS1_, symObjAddr: 0xBF4, symBinAddr: 0x100003AA4, symSize: 0x14 }
  - { offsetInCU: 0x85C7, offset: 0x85C7, size: 0x8, addend: 0x0, symName: __ZNSt3__119ostreambuf_iteratorIcNS_11char_traitsIcEEEC2B8ue170006ERNS_13basic_ostreamIcS2_EE, symObjAddr: 0xC08, symBinAddr: 0x100003AB8, symSize: 0x54 }
  - { offsetInCU: 0x85FD, offset: 0x85FD, size: 0x8, addend: 0x0, symName: __ZNKSt3__19basic_iosIcNS_11char_traitsIcEEE5rdbufB8ue170006Ev, symObjAddr: 0xC5C, symBinAddr: 0x100003B0C, symSize: 0x24 }
  - { offsetInCU: 0x8623, offset: 0x8623, size: 0x8, addend: 0x0, symName: __ZNKSt3__18ios_base5rdbufB8ue170006Ev, symObjAddr: 0xC80, symBinAddr: 0x100003B30, symSize: 0x18 }
  - { offsetInCU: 0x8648, offset: 0x8648, size: 0x8, addend: 0x0, symName: __ZNSt3__111char_traitsIcE11eq_int_typeB8ue170006Eii, symObjAddr: 0xC98, symBinAddr: 0x100003B48, symSize: 0x28 }
  - { offsetInCU: 0x867A, offset: 0x867A, size: 0x8, addend: 0x0, symName: __ZNSt3__111char_traitsIcE3eofB8ue170006Ev, symObjAddr: 0xCC0, symBinAddr: 0x100003B70, symSize: 0x8 }
  - { offsetInCU: 0x868D, offset: 0x868D, size: 0x8, addend: 0x0, symName: __ZNKSt3__19basic_iosIcNS_11char_traitsIcEEE5widenB8ue170006Ec, symObjAddr: 0xCC8, symBinAddr: 0x100003B78, symSize: 0x84 }
  - { offsetInCU: 0x86F9, offset: 0x86F9, size: 0x8, addend: 0x0, symName: __ZNKSt3__15ctypeIcE5widenB8ue170006Ec, symObjAddr: 0xD78, symBinAddr: 0x100003C28, symSize: 0x38 }
  - { offsetInCU: 0x872C, offset: 0x872C, size: 0x8, addend: 0x0, symName: __ZNSt3__18ios_base8setstateB8ue170006Ej, symObjAddr: 0xDB0, symBinAddr: 0x100003C60, symSize: 0x34 }
  - { offsetInCU: 0x8761, offset: 0x8761, size: 0x8, addend: 0x0, symName: __ZNKSt3__18ios_base4failB8ue170006Ev, symObjAddr: 0xE08, symBinAddr: 0x100003CB8, symSize: 0x28 }
  - { offsetInCU: 0x8787, offset: 0x8787, size: 0x8, addend: 0x0, symName: __ZNKSt3__18ios_base3eofB8ue170006Ev, symObjAddr: 0xE30, symBinAddr: 0x100003CE0, symSize: 0x24 }
...
